; Function Attrs: mustprogress uwtable
define hidden noundef ptr @_ZN7datalog18check_table_plugin30mk_select_equal_and_project_fnERKNS_10table_baseERKmj(ptr noundef nonnull align 8 dereferenceable(52) %this, ptr noundef nonnull align 8 dereferenceable(36) %t, ptr noundef nonnull align 8 dereferenceable(8) %value, i32 noundef %col) unnamed_addr #3 align 2 {
entry:
  %m_plugin.i.i = getelementptr inbounds i8, ptr %t, i64 8
  %0 = load ptr, ptr %m_plugin.i.i, align 8
  %cmp.i = icmp eq ptr %0, %this
  br i1 %cmp.i, label %if.end, label %return

if.end:                                           ; preds = %entry
  %call2 = tail call noalias noundef ptr @_ZN6memory8allocateEm(i64 noundef 24)
  tail call void @_ZN7datalog18check_table_plugin27select_equal_and_project_fnC2ERS0_RKNS_10table_baseERKmj(ptr noundef nonnull align 8 dereferenceable(24) %call2, ptr noundef nonnull align 8 dereferenceable(52) %this, ptr noundef nonnull align 8 dereferenceable(36) %t, ptr noundef nonnull align 8 dereferenceable(8) %value, i32 noundef %col)
  br label %return

return:                                           ; preds = %entry, %if.end
  %retval.0 = phi ptr [ %call2, %if.end ], [ null, %entry ]
  ret ptr %retval.0
}